target datalayout = "e-m:e-p270:32:32-p271:32:32-p272:64:64-i64:64-i128:128-f80:128-n8:16:32:64-S128"
target triple = "x86_64-pc-linux-gnu"

%struct.VP9RawFrameHeader = type { i8, i8, i8, i8, i8, i8, i8, i8, i8, i8, i8, i8, i8, i8, i8, i8, [3 x i8], [4 x i8], i8, i8, i8, i8, [3 x i8], i16, i16, i8, i16, i16, i8, i8, i8, i8, i8, i8, [4 x i8], [4 x i8], [2 x i8], [2 x i8], i8, i8, i8, i8, i8, i8, [7 x i8], i8, [3 x i8], i8, i8, [8 x [4 x i8]], [8 x [4 x i8]], [8 x [4 x i8]], i8, i8, i16 }

@.str.50 = private unnamed_addr constant [21 x i8] c"is_filter_switchable\00", align 1
@.str.51 = private unnamed_addr constant [30 x i8] c"raw_interpolation_filter_type\00", align 1

; Function Attrs: nounwind uwtable
define internal i32 @cbs_vp9_write_interpolation_filter(ptr noundef %0, ptr noundef %1, ptr noundef %2) #0 {
  %4 = alloca i32, align 4
  %5 = alloca ptr, align 8
  %6 = alloca ptr, align 8
  %7 = alloca ptr, align 8
  %8 = alloca i32, align 4
  %9 = alloca i32, align 4
  store ptr %0, ptr %5, align 8, !tbaa !4
  store ptr %1, ptr %6, align 8, !tbaa !45
  store ptr %2, ptr %7, align 8, !tbaa !79
  call void @llvm.lifetime.start.p0(i64 4, ptr %8) #8
  br label %10

10:                                               ; preds = %3
  br label %11

11:                                               ; preds = %10
  %12 = load ptr, ptr %5, align 8, !tbaa !4
  %13 = load ptr, ptr %6, align 8, !tbaa !45
  %14 = load ptr, ptr %7, align 8, !tbaa !79
  %15 = getelementptr inbounds nuw %struct.VP9RawFrameHeader, ptr %14, i32 0, i32 28
  %16 = load i8, ptr %15, align 2, !tbaa !134
  %17 = zext i8 %16 to i32
  %18 = call i32 @ff_cbs_write_simple_unsigned(ptr noundef %12, ptr noundef %13, i32 noundef 1, ptr noundef @.str.50, i32 noundef %17)
  store i32 %18, ptr %8, align 4, !tbaa !11
  %19 = load i32, ptr %8, align 4, !tbaa !11
  %20 = icmp slt i32 %19, 0
  br i1 %20, label %21, label %23

21:                                               ; preds = %11
  %22 = load i32, ptr %8, align 4, !tbaa !11
  store i32 %22, ptr %4, align 4
  store i32 1, ptr %9, align 4
  br label %52

23:                                               ; preds = %11
  br label %24

24:                                               ; preds = %23
  br label %25

25:                                               ; preds = %24
  br label %26

26:                                               ; preds = %25
  br label %27

27:                                               ; preds = %26
  %28 = load ptr, ptr %7, align 8, !tbaa !79
  %29 = getelementptr inbounds nuw %struct.VP9RawFrameHeader, ptr %28, i32 0, i32 28
  %30 = load i8, ptr %29, align 2, !tbaa !134
  %31 = icmp ne i8 %30, 0
  br i1 %31, label %51, label %32

32:                                               ; preds = %27
  br label %33

33:                                               ; preds = %32
  br label %34

34:                                               ; preds = %33
  %35 = load ptr, ptr %5, align 8, !tbaa !4
  %36 = load ptr, ptr %6, align 8, !tbaa !45
  %37 = load ptr, ptr %7, align 8, !tbaa !79
  %38 = getelementptr inbounds nuw %struct.VP9RawFrameHeader, ptr %37, i32 0, i32 29
  %39 = load i8, ptr %38, align 1, !tbaa !135
  %40 = zext i8 %39 to i32
  %41 = call i32 @ff_cbs_write_simple_unsigned(ptr noundef %35, ptr noundef %36, i32 noundef 2, ptr noundef @.str.51, i32 noundef %40)
  store i32 %41, ptr %8, align 4, !tbaa !11
  %42 = load i32, ptr %8, align 4, !tbaa !11
  %43 = icmp slt i32 %42, 0
  br i1 %43, label %44, label %46

44:                                               ; preds = %34
  %45 = load i32, ptr %8, align 4, !tbaa !11
  store i32 %45, ptr %4, align 4
  store i32 1, ptr %9, align 4
  br label %52

46:                                               ; preds = %34
  br label %47

47:                                               ; preds = %46
  br label %48

48:                                               ; preds = %47
  br label %49

49:                                               ; preds = %48
  br label %50

50:                                               ; preds = %49
  br label %51

51:                                               ; preds = %50, %27
  store i32 0, ptr %4, align 4
  store i32 1, ptr %9, align 4
  br label %52

52:                                               ; preds = %51, %44, %21
  call void @llvm.lifetime.end.p0(i64 4, ptr %8) #8
  %53 = load i32, ptr %4, align 4
  ret i32 %53
}