; Function Attrs: nounwind uwtable
define internal fastcc range(i32 -2147483648, 1) i32 @cbs_vp9_write_interpolation_filter(ptr noundef %0, ptr noundef %1, ptr noundef readonly captures(none) %2) unnamed_addr #0 {
  %4 = getelementptr inbounds nuw i8, ptr %2, i64 40
  %5 = load i8, ptr %4, align 2, !tbaa !121
  %6 = zext i8 %5 to i32
  %7 = tail call i32 @ff_cbs_write_simple_unsigned(ptr noundef %0, ptr noundef %1, i32 noundef 1, ptr noundef nonnull @.str.50, i32 noundef %6) #8
  %8 = icmp slt i32 %7, 0
  br i1 %8, label %18, label %9

9:                                                ; preds = %3
  %10 = load i8, ptr %4, align 2, !tbaa !121
  %.not = icmp eq i8 %10, 0
  br i1 %.not, label %11, label %17

11:                                               ; preds = %9
  %12 = getelementptr inbounds nuw i8, ptr %2, i64 41
  %13 = load i8, ptr %12, align 1, !tbaa !122
  %14 = zext i8 %13 to i32
  %15 = tail call i32 @ff_cbs_write_simple_unsigned(ptr noundef %0, ptr noundef %1, i32 noundef 2, ptr noundef nonnull @.str.51, i32 noundef %14) #8
  %16 = icmp slt i32 %15, 0
  br i1 %16, label %18, label %17

17:                                               ; preds = %11, %9
  br label %18

18:                                               ; preds = %11, %3, %17
  %.0 = phi i32 [ 0, %17 ], [ %7, %3 ], [ %15, %11 ]
  ret i32 %.0
}